target datalayout = "e-m:e-p270:32:32-p271:32:32-p272:64:64-i64:64-i128:128-f80:128-n8:16:32:64-S128"
target triple = "x86_64-pc-linux-gnu"

%struct.Literal_t_ = type { ptr, ptr, ptr }

; Function Attrs: inlinehint nounwind uwtable
define internal i32 @Kit_TruthIsConst0(ptr noundef %0, i32 noundef %1) #3 {
  %3 = alloca i32, align 4
  %4 = alloca ptr, align 8
  %5 = alloca i32, align 4
  %6 = alloca i32, align 4
  %7 = alloca i32, align 4
  store ptr %0, ptr %4, align 8, !tbaa !10
  store i32 %1, ptr %5, align 4, !tbaa !8
  call void @llvm.lifetime.start.p0(i64 4, ptr %6) #10
  %8 = load i32, ptr %5, align 4, !tbaa !8
  %9 = call i32 @Kit_TruthWordNum(i32 noundef %8)
  %10 = sub nsw i32 %9, 1
  store i32 %10, ptr %6, align 4, !tbaa !8
  br label %11

11:                                               ; preds = %23, %2
  %12 = load i32, ptr %6, align 4, !tbaa !8
  %13 = icmp sge i32 %12, 0
  br i1 %13, label %14, label %26

14:                                               ; preds = %11
  %15 = load ptr, ptr %4, align 8, !tbaa !10
  %16 = load i32, ptr %6, align 4, !tbaa !8
  %17 = sext i32 %16 to i64
  %18 = getelementptr inbounds i32, ptr %15, i64 %17
  %19 = load i32, ptr %18, align 4, !tbaa !8
  %20 = icmp ne i32 %19, 0
  br i1 %20, label %21, label %22

21:                                               ; preds = %14
  store i32 0, ptr %3, align 4
  store i32 1, ptr %7, align 4
  br label %27

22:                                               ; preds = %14
  br label %23

23:                                               ; preds = %22
  %24 = load i32, ptr %6, align 4, !tbaa !8
  %25 = add nsw i32 %24, -1
  store i32 %25, ptr %6, align 4, !tbaa !8
  br label %11, !llvm.loop !19

26:                                               ; preds = %11
  store i32 1, ptr %3, align 4
  store i32 1, ptr %7, align 4
  br label %27

27:                                               ; preds = %26, %21
  call void @llvm.lifetime.end.p0(i64 4, ptr %6) #10
  %28 = load i32, ptr %3, align 4
  ret i32 %28
}

; Function Attrs: inlinehint nounwind uwtable
define internal void @Kit_TruthAnd(ptr noundef %0, ptr noundef %1, ptr noundef %2, i32 noundef %3) #3 {
  %5 = alloca ptr, align 8
  %6 = alloca ptr, align 8
  %7 = alloca ptr, align 8
  %8 = alloca i32, align 4
  %9 = alloca i32, align 4
  store ptr %0, ptr %5, align 8, !tbaa !10
  store ptr %1, ptr %6, align 8, !tbaa !10
  store ptr %2, ptr %7, align 8, !tbaa !10
  store i32 %3, ptr %8, align 4, !tbaa !8
  call void @llvm.lifetime.start.p0(i64 4, ptr %9) #10
  %10 = load i32, ptr %8, align 4, !tbaa !8
  %11 = call i32 @Kit_TruthWordNum(i32 noundef %10)
  %12 = sub nsw i32 %11, 1
  store i32 %12, ptr %9, align 4, !tbaa !8
  br label %13

13:                                               ; preds = %32, %4
  %14 = load i32, ptr %9, align 4, !tbaa !8
  %15 = icmp sge i32 %14, 0
  br i1 %15, label %16, label %35

16:                                               ; preds = %13
  %17 = load ptr, ptr %6, align 8, !tbaa !10
  %18 = load i32, ptr %9, align 4, !tbaa !8
  %19 = sext i32 %18 to i64
  %20 = getelementptr inbounds i32, ptr %17, i64 %19
  %21 = load i32, ptr %20, align 4, !tbaa !8
  %22 = load ptr, ptr %7, align 8, !tbaa !10
  %23 = load i32, ptr %9, align 4, !tbaa !8
  %24 = sext i32 %23 to i64
  %25 = getelementptr inbounds i32, ptr %22, i64 %24
  %26 = load i32, ptr %25, align 4, !tbaa !8
  %27 = and i32 %21, %26
  %28 = load ptr, ptr %5, align 8, !tbaa !10
  %29 = load i32, ptr %9, align 4, !tbaa !8
  %30 = sext i32 %29 to i64
  %31 = getelementptr inbounds i32, ptr %28, i64 %30
  store i32 %27, ptr %31, align 4, !tbaa !8
  br label %32

32:                                               ; preds = %16
  %33 = load i32, ptr %9, align 4, !tbaa !8
  %34 = add nsw i32 %33, -1
  store i32 %34, ptr %9, align 4, !tbaa !8
  br label %13, !llvm.loop !18

35:                                               ; preds = %13
  call void @llvm.lifetime.end.p0(i64 4, ptr %9) #10
  ret void
}

; Function Attrs: inlinehint nounwind uwtable
define internal void @Kit_TruthNot(ptr noundef %0, ptr noundef %1, i32 noundef %2) #3 {
  %4 = alloca ptr, align 8
  %5 = alloca ptr, align 8
  %6 = alloca i32, align 4
  %7 = alloca i32, align 4
  store ptr %0, ptr %4, align 8, !tbaa !10
  store ptr %1, ptr %5, align 8, !tbaa !10
  store i32 %2, ptr %6, align 4, !tbaa !8
  call void @llvm.lifetime.start.p0(i64 4, ptr %7) #10
  %8 = load i32, ptr %6, align 4, !tbaa !8
  %9 = call i32 @Kit_TruthWordNum(i32 noundef %8)
  %10 = sub nsw i32 %9, 1
  store i32 %10, ptr %7, align 4, !tbaa !8
  br label %11

11:                                               ; preds = %25, %3
  %12 = load i32, ptr %7, align 4, !tbaa !8
  %13 = icmp sge i32 %12, 0
  br i1 %13, label %14, label %28

14:                                               ; preds = %11
  %15 = load ptr, ptr %5, align 8, !tbaa !10
  %16 = load i32, ptr %7, align 4, !tbaa !8
  %17 = sext i32 %16 to i64
  %18 = getelementptr inbounds i32, ptr %15, i64 %17
  %19 = load i32, ptr %18, align 4, !tbaa !8
  %20 = xor i32 %19, -1
  %21 = load ptr, ptr %4, align 8, !tbaa !10
  %22 = load i32, ptr %7, align 4, !tbaa !8
  %23 = sext i32 %22 to i64
  %24 = getelementptr inbounds i32, ptr %21, i64 %23
  store i32 %20, ptr %24, align 4, !tbaa !8
  br label %25

25:                                               ; preds = %14
  %26 = load i32, ptr %7, align 4, !tbaa !8
  %27 = add nsw i32 %26, -1
  store i32 %27, ptr %7, align 4, !tbaa !8
  br label %11, !llvm.loop !16

28:                                               ; preds = %11
  call void @llvm.lifetime.end.p0(i64 4, ptr %7) #10
  ret void
}

; Function Attrs: inlinehint nounwind uwtable
define internal i32 @Kit_TruthWordNum(i32 noundef %0) #3 {
  %2 = alloca i32, align 4
  store i32 %0, ptr %2, align 4, !tbaa !8
  %3 = load i32, ptr %2, align 4, !tbaa !8
  %4 = icmp sle i32 %3, 5
  br i1 %4, label %5, label %6

5:                                                ; preds = %1
  br label %10

6:                                                ; preds = %1
  %7 = load i32, ptr %2, align 4, !tbaa !8
  %8 = sub nsw i32 %7, 5
  %9 = shl i32 1, %8
  br label %10

10:                                               ; preds = %6, %5
  %11 = phi i32 [ 1, %5 ], [ %9, %6 ]
  ret i32 %11
}

; Function Attrs: nounwind uwtable
define i32 @Rpo_CheckANDGroup(ptr noundef %0, ptr noundef %1, i32 noundef %2) #0 {
  %4 = alloca ptr, align 8
  %5 = alloca ptr, align 8
  %6 = alloca i32, align 4
  %7 = alloca ptr, align 8
  %8 = alloca ptr, align 8
  %9 = alloca ptr, align 8
  %10 = alloca ptr, align 8
  %11 = alloca i32, align 4
  store ptr %0, ptr %4, align 8, !tbaa !3
  store ptr %1, ptr %5, align 8, !tbaa !3
  store i32 %2, ptr %6, align 4, !tbaa !8
  call void @llvm.lifetime.start.p0(i64 8, ptr %7) #10
  %12 = load i32, ptr %6, align 4, !tbaa !8
  %13 = call i32 @Kit_TruthWordNum(i32 noundef %12)
  %14 = sext i32 %13 to i64
  %15 = mul i64 4, %14
  %16 = call noalias ptr @malloc(i64 noundef %15) #11
  store ptr %16, ptr %7, align 8, !tbaa !10
  call void @llvm.lifetime.start.p0(i64 8, ptr %8) #10
  %17 = load i32, ptr %6, align 4, !tbaa !8
  %18 = call i32 @Kit_TruthWordNum(i32 noundef %17)
  %19 = sext i32 %18 to i64
  %20 = mul i64 4, %19
  %21 = call noalias ptr @malloc(i64 noundef %20) #11
  store ptr %21, ptr %8, align 8, !tbaa !10
  call void @llvm.lifetime.start.p0(i64 8, ptr %9) #10
  call void @llvm.lifetime.start.p0(i64 8, ptr %10) #10
  call void @llvm.lifetime.start.p0(i64 4, ptr %11) #10
  %22 = load ptr, ptr %7, align 8, !tbaa !10
  %23 = load ptr, ptr %4, align 8, !tbaa !3
  %24 = getelementptr inbounds nuw %struct.Literal_t_, ptr %23, i32 0, i32 1
  %25 = load ptr, ptr %24, align 8, !tbaa !12
  %26 = load i32, ptr %6, align 4, !tbaa !8
  call void @Kit_TruthNot(ptr noundef %22, ptr noundef %25, i32 noundef %26)
  %27 = load ptr, ptr %8, align 8, !tbaa !10
  %28 = load ptr, ptr %5, align 8, !tbaa !3
  %29 = getelementptr inbounds nuw %struct.Literal_t_, ptr %28, i32 0, i32 1
  %30 = load ptr, ptr %29, align 8, !tbaa !12
  %31 = load i32, ptr %6, align 4, !tbaa !8
  call void @Kit_TruthNot(ptr noundef %27, ptr noundef %30, i32 noundef %31)
  %32 = load i32, ptr %6, align 4, !tbaa !8
  %33 = call i32 @Kit_TruthWordNum(i32 noundef %32)
  %34 = sext i32 %33 to i64
  %35 = mul i64 4, %34
  %36 = call noalias ptr @malloc(i64 noundef %35) #11
  store ptr %36, ptr %9, align 8, !tbaa !10
  %37 = load i32, ptr %6, align 4, !tbaa !8
  %38 = call i32 @Kit_TruthWordNum(i32 noundef %37)
  %39 = sext i32 %38 to i64
  %40 = mul i64 4, %39
  %41 = call noalias ptr @malloc(i64 noundef %40) #11
  store ptr %41, ptr %10, align 8, !tbaa !10
  %42 = load ptr, ptr %9, align 8, !tbaa !10
  %43 = load ptr, ptr %4, align 8, !tbaa !3
  %44 = getelementptr inbounds nuw %struct.Literal_t_, ptr %43, i32 0, i32 0
  %45 = load ptr, ptr %44, align 8, !tbaa !15
  %46 = load ptr, ptr %8, align 8, !tbaa !10
  %47 = load i32, ptr %6, align 4, !tbaa !8
  call void @Kit_TruthAnd(ptr noundef %42, ptr noundef %45, ptr noundef %46, i32 noundef %47)
  %48 = load ptr, ptr %9, align 8, !tbaa !10
  %49 = load i32, ptr %6, align 4, !tbaa !8
  %50 = call i32 @Kit_TruthIsConst0(ptr noundef %48, i32 noundef %49)
  store i32 %50, ptr %11, align 4, !tbaa !8
  %51 = load i32, ptr %11, align 4, !tbaa !8
  %52 = icmp ne i32 %51, 0
  br i1 %52, label %53, label %63

53:                                               ; preds = %3
  %54 = load ptr, ptr %10, align 8, !tbaa !10
  %55 = load ptr, ptr %5, align 8, !tbaa !3
  %56 = getelementptr inbounds nuw %struct.Literal_t_, ptr %55, i32 0, i32 0
  %57 = load ptr, ptr %56, align 8, !tbaa !15
  %58 = load ptr, ptr %7, align 8, !tbaa !10
  %59 = load i32, ptr %6, align 4, !tbaa !8
  call void @Kit_TruthAnd(ptr noundef %54, ptr noundef %57, ptr noundef %58, i32 noundef %59)
  %60 = load ptr, ptr %10, align 8, !tbaa !10
  %61 = load i32, ptr %6, align 4, !tbaa !8
  %62 = call i32 @Kit_TruthIsConst0(ptr noundef %60, i32 noundef %61)
  store i32 %62, ptr %11, align 4, !tbaa !8
  br label %63

63:                                               ; preds = %53, %3
  %64 = load ptr, ptr %7, align 8, !tbaa !10
  %65 = icmp ne ptr %64, null
  br i1 %65, label %66, label %68

66:                                               ; preds = %63
  %67 = load ptr, ptr %7, align 8, !tbaa !10
  call void @free(ptr noundef %67) #10
  store ptr null, ptr %7, align 8, !tbaa !10
  br label %69

68:                                               ; preds = %63
  br label %69

69:                                               ; preds = %68, %66
  %70 = load ptr, ptr %8, align 8, !tbaa !10
  %71 = icmp ne ptr %70, null
  br i1 %71, label %72, label %74

72:                                               ; preds = %69
  %73 = load ptr, ptr %8, align 8, !tbaa !10
  call void @free(ptr noundef %73) #10
  store ptr null, ptr %8, align 8, !tbaa !10
  br label %75

74:                                               ; preds = %69
  br label %75

75:                                               ; preds = %74, %72
  %76 = load ptr, ptr %9, align 8, !tbaa !10
  %77 = icmp ne ptr %76, null
  br i1 %77, label %78, label %80

78:                                               ; preds = %75
  %79 = load ptr, ptr %9, align 8, !tbaa !10
  call void @free(ptr noundef %79) #10
  store ptr null, ptr %9, align 8, !tbaa !10
  br label %81

80:                                               ; preds = %75
  br label %81

81:                                               ; preds = %80, %78
  %82 = load ptr, ptr %10, align 8, !tbaa !10
  %83 = icmp ne ptr %82, null
  br i1 %83, label %84, label %86

84:                                               ; preds = %81
  %85 = load ptr, ptr %10, align 8, !tbaa !10
  call void @free(ptr noundef %85) #10
  store ptr null, ptr %10, align 8, !tbaa !10
  br label %87

86:                                               ; preds = %81
  br label %87

87:                                               ; preds = %86, %84
  %88 = load i32, ptr %11, align 4, !tbaa !8
  call void @llvm.lifetime.end.p0(i64 4, ptr %11) #10
  call void @llvm.lifetime.end.p0(i64 8, ptr %10) #10
  call void @llvm.lifetime.end.p0(i64 8, ptr %9) #10
  call void @llvm.lifetime.end.p0(i64 8, ptr %8) #10
  call void @llvm.lifetime.end.p0(i64 8, ptr %7) #10
  ret i32 %88
}