; Function Attrs: nounwind memory(readwrite, argmem: read) uwtable
define range(i32 0, 2) i32 @Rpo_CheckANDGroup(ptr noundef readonly captures(none) %0, ptr noundef readonly captures(none) %1, i32 noundef %2) local_unnamed_addr #0 {
  %4 = icmp slt i32 %2, 6
  %5 = add nsw i32 %2, -5
  %6 = shl nuw i32 1, %5
  %7 = select i1 %4, i32 1, i32 %6
  %8 = sext i32 %7 to i64
  %9 = shl nsw i64 %8, 2
  %10 = tail call noalias ptr @malloc(i64 noundef %9) #16
  %11 = tail call noalias ptr @malloc(i64 noundef %9) #16
  %12 = getelementptr inbounds nuw i8, ptr %0, i64 8
  %13 = load ptr, ptr %12, align 8, !tbaa !3
  %14 = icmp sgt i32 %7, 0
  br i1 %14, label %select.unfold.preheader.i, label %Kit_TruthNot.exit45

select.unfold.preheader.i:                        ; preds = %3
  %15 = zext nneg i32 %7 to i64
  br label %select.unfold.i

select.unfold.i:                                  ; preds = %select.unfold.i, %select.unfold.preheader.i
  %indvars.iv.i = phi i64 [ %15, %select.unfold.preheader.i ], [ %indvars.iv.next.i, %select.unfold.i ]
  %indvars.iv.next.i = add nsw i64 %indvars.iv.i, -1
  %16 = getelementptr inbounds nuw i32, ptr %13, i64 %indvars.iv.next.i
  %17 = load i32, ptr %16, align 4, !tbaa !10
  %18 = xor i32 %17, -1
  %19 = getelementptr inbounds nuw i32, ptr %10, i64 %indvars.iv.next.i
  store i32 %18, ptr %19, align 4, !tbaa !10
  %20 = icmp samesign ugt i64 %indvars.iv.i, 1
  br i1 %20, label %select.unfold.i, label %Kit_TruthNot.exit, !llvm.loop !12

Kit_TruthNot.exit:                                ; preds = %select.unfold.i
  %21 = getelementptr inbounds nuw i8, ptr %1, i64 8
  %22 = load ptr, ptr %21, align 8, !tbaa !3
  br label %select.unfold.i42

select.unfold.i42:                                ; preds = %select.unfold.i42, %Kit_TruthNot.exit
  %indvars.iv.i43 = phi i64 [ %15, %Kit_TruthNot.exit ], [ %indvars.iv.next.i44, %select.unfold.i42 ]
  %indvars.iv.next.i44 = add nsw i64 %indvars.iv.i43, -1
  %23 = getelementptr inbounds nuw i32, ptr %22, i64 %indvars.iv.next.i44
  %24 = load i32, ptr %23, align 4, !tbaa !10
  %25 = xor i32 %24, -1
  %26 = getelementptr inbounds nuw i32, ptr %11, i64 %indvars.iv.next.i44
  store i32 %25, ptr %26, align 4, !tbaa !10
  %27 = icmp samesign ugt i64 %indvars.iv.i43, 1
  br i1 %27, label %select.unfold.i42, label %Kit_TruthNot.exit45, !llvm.loop !12

Kit_TruthNot.exit45:                              ; preds = %select.unfold.i42, %3
  %28 = tail call noalias ptr @malloc(i64 noundef %9) #16
  %29 = tail call noalias ptr @malloc(i64 noundef %9) #16
  %30 = load ptr, ptr %0, align 8, !tbaa !14
  %31 = zext i32 %7 to i64
  br i1 %14, label %select.unfold.i48, label %select.unfold.i52.preheader

select.unfold.i48:                                ; preds = %Kit_TruthNot.exit45, %select.unfold.i48
  %indvars.iv.i49 = phi i64 [ %indvars.iv.next.i50, %select.unfold.i48 ], [ %31, %Kit_TruthNot.exit45 ]
  %indvars.iv.next.i50 = add nsw i64 %indvars.iv.i49, -1
  %32 = getelementptr inbounds nuw i32, ptr %30, i64 %indvars.iv.next.i50
  %33 = load i32, ptr %32, align 4, !tbaa !10
  %34 = getelementptr inbounds nuw i32, ptr %11, i64 %indvars.iv.next.i50
  %35 = load i32, ptr %34, align 4, !tbaa !10
  %36 = and i32 %35, %33
  %37 = getelementptr inbounds nuw i32, ptr %28, i64 %indvars.iv.next.i50
  store i32 %36, ptr %37, align 4, !tbaa !10
  %38 = icmp samesign ugt i64 %indvars.iv.i49, 1
  br i1 %38, label %select.unfold.i48, label %select.unfold.i52.preheader, !llvm.loop !15

select.unfold.i52.preheader:                      ; preds = %select.unfold.i48, %Kit_TruthNot.exit45
  br label %select.unfold.i52

select.unfold.i52:                                ; preds = %select.unfold.i52.preheader, %41
  %indvars.iv.i53 = phi i64 [ %42, %41 ], [ %31, %select.unfold.i52.preheader ]
  %39 = trunc nuw i64 %indvars.iv.i53 to i32
  %40 = icmp sgt i32 %39, 0
  br i1 %40, label %41, label %Kit_TruthIsConst0.exit

41:                                               ; preds = %select.unfold.i52
  %42 = add nsw i64 %indvars.iv.i53, -1
  %43 = getelementptr inbounds nuw i32, ptr %28, i64 %42
  %44 = load i32, ptr %43, align 4, !tbaa !10
  %.not.i = icmp eq i32 %44, 0
  br i1 %.not.i, label %select.unfold.i52, label %Kit_TruthIsConst0.exit65, !llvm.loop !16

Kit_TruthIsConst0.exit:                           ; preds = %select.unfold.i52
  %45 = load ptr, ptr %1, align 8, !tbaa !14
  br i1 %14, label %select.unfold.i56, label %select.unfold.i61.preheader

select.unfold.i56:                                ; preds = %Kit_TruthIsConst0.exit, %select.unfold.i56
  %indvars.iv.i57 = phi i64 [ %indvars.iv.next.i58, %select.unfold.i56 ], [ %31, %Kit_TruthIsConst0.exit ]
  %indvars.iv.next.i58 = add nsw i64 %indvars.iv.i57, -1
  %46 = getelementptr inbounds nuw i32, ptr %45, i64 %indvars.iv.next.i58
  %47 = load i32, ptr %46, align 4, !tbaa !10
  %48 = getelementptr inbounds nuw i32, ptr %10, i64 %indvars.iv.next.i58
  %49 = load i32, ptr %48, align 4, !tbaa !10
  %50 = and i32 %49, %47
  %51 = getelementptr inbounds nuw i32, ptr %29, i64 %indvars.iv.next.i58
  store i32 %50, ptr %51, align 4, !tbaa !10
  %52 = icmp samesign ugt i64 %indvars.iv.i57, 1
  br i1 %52, label %select.unfold.i56, label %select.unfold.i61.preheader, !llvm.loop !15

select.unfold.i61.preheader:                      ; preds = %select.unfold.i56, %Kit_TruthIsConst0.exit
  br label %select.unfold.i61

select.unfold.i61:                                ; preds = %select.unfold.i61.preheader, %55
  %indvars.iv.i62 = phi i64 [ %56, %55 ], [ %31, %select.unfold.i61.preheader ]
  %53 = trunc nuw i64 %indvars.iv.i62 to i32
  %54 = icmp sgt i32 %53, 0
  br i1 %54, label %55, label %Kit_TruthIsConst0.exit65

55:                                               ; preds = %select.unfold.i61
  %56 = add nsw i64 %indvars.iv.i62, -1
  %57 = getelementptr inbounds nuw i32, ptr %29, i64 %56
  %58 = load i32, ptr %57, align 4, !tbaa !10
  %.not.i64 = icmp eq i32 %58, 0
  br i1 %.not.i64, label %select.unfold.i61, label %Kit_TruthIsConst0.exit65, !llvm.loop !16

Kit_TruthIsConst0.exit65:                         ; preds = %41, %55, %select.unfold.i61
  %.0 = phi i32 [ 1, %select.unfold.i61 ], [ 0, %55 ], [ 0, %41 ]
  %.not36 = icmp eq ptr %10, null
  br i1 %.not36, label %60, label %59

59:                                               ; preds = %Kit_TruthIsConst0.exit65
  tail call void @free(ptr noundef nonnull %10) #17
  br label %60

60:                                               ; preds = %Kit_TruthIsConst0.exit65, %59
  %.not37 = icmp eq ptr %11, null
  br i1 %.not37, label %62, label %61

61:                                               ; preds = %60
  tail call void @free(ptr noundef nonnull %11) #17
  br label %62

62:                                               ; preds = %60, %61
  %.not38 = icmp eq ptr %28, null
  br i1 %.not38, label %64, label %63

63:                                               ; preds = %62
  tail call void @free(ptr noundef nonnull %28) #17
  br label %64

64:                                               ; preds = %62, %63
  %.not39 = icmp eq ptr %29, null
  br i1 %.not39, label %66, label %65

65:                                               ; preds = %64
  tail call void @free(ptr noundef nonnull %29) #17
  br label %66

66:                                               ; preds = %64, %65
  ret i32 %.0
}